target datalayout = "e-m:e-p270:32:32-p271:32:32-p272:64:64-i64:64-i128:128-f80:128-n8:16:32:64-S128"
target triple = "x86_64-pc-linux-gnu"

@hf_kafka_token_principal_type = internal global i32 0, align 4
@hf_kafka_token_principal_name = internal global i32 0, align 4
@hf_kafka_token_issue_timestamp = internal global i32 0, align 4
@hf_kafka_token_expiry_timestamp = internal global i32 0, align 4
@hf_kafka_token_max_timestamp = internal global i32 0, align 4
@hf_kafka_token_id = internal global i32 0, align 4
@hf_kafka_token_hmac = internal global i32 0, align 4
@ett_kafka_renewers = internal global i32 0, align 4
@ett_kafka_token = internal global i32 0, align 4
@.str.737 = private unnamed_addr constant [9 x i8] c"Renewers\00", align 1
@.str.779 = private unnamed_addr constant [6 x i8] c"Token\00", align 1

; Function Attrs: null_pointer_is_valid sspstrong uwtable
define internal i32 @dissect_kafka_timestamp(ptr noundef %0, i32 noundef %1, ptr noundef %2, ptr noundef %3, i32 noundef %4, ptr noundef %5) #0 {
  %7 = alloca ptr, align 8
  %8 = alloca i32, align 4
  %9 = alloca ptr, align 8
  %10 = alloca ptr, align 8
  %11 = alloca i32, align 4
  %12 = alloca ptr, align 8
  store ptr %0, ptr %7, align 8
  store i32 %1, ptr %8, align 4
  store ptr %2, ptr %9, align 8
  store ptr %3, ptr %10, align 8
  store i32 %4, ptr %11, align 4
  store ptr %5, ptr %12, align 8
  %13 = load ptr, ptr %12, align 8
  %14 = icmp ne ptr %13, null
  br i1 %14, label %15, label %20

15:                                               ; preds = %6
  %16 = load ptr, ptr %9, align 8
  %17 = load i32, ptr %11, align 4
  %18 = call i64 @tvb_get_int64(ptr noundef %16, i32 noundef %17, i32 noundef 0)
  %19 = load ptr, ptr %12, align 8
  store i64 %18, ptr %19, align 8
  br label %20

20:                                               ; preds = %15, %6
  %21 = load ptr, ptr %7, align 8
  %22 = load i32, ptr %8, align 4
  %23 = load ptr, ptr %9, align 8
  %24 = load i32, ptr %11, align 4
  %25 = call ptr @proto_tree_add_item(ptr noundef %21, i32 noundef %22, ptr noundef %23, i32 noundef %24, i32 noundef 8, i32 noundef 20)
  %26 = load i32, ptr %11, align 4
  %27 = add i32 %26, 8
  ret i32 %27
}

; Function Attrs: null_pointer_is_valid sspstrong uwtable
define internal i32 @dissect_kafka_describe_delegation_token_response_token(ptr noundef %0, ptr noundef %1, ptr noundef %2, i32 noundef %3, i16 noundef signext %4) #0 {
  %6 = alloca ptr, align 8
  %7 = alloca ptr, align 8
  %8 = alloca ptr, align 8
  %9 = alloca i32, align 4
  %10 = alloca i16, align 2
  %11 = alloca ptr, align 8
  %12 = alloca ptr, align 8
  %13 = alloca ptr, align 8
  %14 = alloca ptr, align 8
  store ptr %0, ptr %6, align 8
  store ptr %1, ptr %7, align 8
  store ptr %2, ptr %8, align 8
  store i32 %3, ptr %9, align 4
  store i16 %4, ptr %10, align 2
  call void @llvm.lifetime.start.p0(i64 8, ptr %11) #12
  call void @llvm.lifetime.start.p0(i64 8, ptr %12) #12
  call void @llvm.lifetime.start.p0(i64 8, ptr %13) #12
  call void @llvm.lifetime.start.p0(i64 8, ptr %14) #12
  %15 = load ptr, ptr %8, align 8
  %16 = load ptr, ptr %6, align 8
  %17 = load i32, ptr %9, align 4
  %18 = load i32, ptr @ett_kafka_token, align 4
  %19 = call ptr @proto_tree_add_subtree(ptr noundef %15, ptr noundef %16, i32 noundef %17, i32 noundef -1, i32 noundef %18, ptr noundef %11, ptr noundef @.str.779)
  store ptr %19, ptr %13, align 8
  %20 = load ptr, ptr %13, align 8
  %21 = load i32, ptr @hf_kafka_token_principal_type, align 4
  %22 = load ptr, ptr %6, align 8
  %23 = load ptr, ptr %7, align 8
  %24 = load i32, ptr %9, align 4
  %25 = load i16, ptr %10, align 2
  %26 = sext i16 %25 to i32
  %27 = icmp sge i32 %26, 2
  %28 = zext i1 %27 to i32
  %29 = call i32 @dissect_kafka_string(ptr noundef %20, i32 noundef %21, ptr noundef %22, ptr noundef %23, i32 noundef %24, i32 noundef %28, ptr noundef null, ptr noundef null)
  store i32 %29, ptr %9, align 4
  %30 = load ptr, ptr %13, align 8
  %31 = load i32, ptr @hf_kafka_token_principal_name, align 4
  %32 = load ptr, ptr %6, align 8
  %33 = load ptr, ptr %7, align 8
  %34 = load i32, ptr %9, align 4
  %35 = load i16, ptr %10, align 2
  %36 = sext i16 %35 to i32
  %37 = icmp sge i32 %36, 2
  %38 = zext i1 %37 to i32
  %39 = call i32 @dissect_kafka_string(ptr noundef %30, i32 noundef %31, ptr noundef %32, ptr noundef %33, i32 noundef %34, i32 noundef %38, ptr noundef null, ptr noundef null)
  store i32 %39, ptr %9, align 4
  %40 = load ptr, ptr %13, align 8
  %41 = load i32, ptr @hf_kafka_token_issue_timestamp, align 4
  %42 = load ptr, ptr %6, align 8
  %43 = load ptr, ptr %7, align 8
  %44 = load i32, ptr %9, align 4
  %45 = call i32 @dissect_kafka_timestamp(ptr noundef %40, i32 noundef %41, ptr noundef %42, ptr noundef %43, i32 noundef %44, ptr noundef null)
  store i32 %45, ptr %9, align 4
  %46 = load ptr, ptr %13, align 8
  %47 = load i32, ptr @hf_kafka_token_expiry_timestamp, align 4
  %48 = load ptr, ptr %6, align 8
  %49 = load ptr, ptr %7, align 8
  %50 = load i32, ptr %9, align 4
  %51 = call i32 @dissect_kafka_timestamp(ptr noundef %46, i32 noundef %47, ptr noundef %48, ptr noundef %49, i32 noundef %50, ptr noundef null)
  store i32 %51, ptr %9, align 4
  %52 = load ptr, ptr %13, align 8
  %53 = load i32, ptr @hf_kafka_token_max_timestamp, align 4
  %54 = load ptr, ptr %6, align 8
  %55 = load ptr, ptr %7, align 8
  %56 = load i32, ptr %9, align 4
  %57 = call i32 @dissect_kafka_timestamp(ptr noundef %52, i32 noundef %53, ptr noundef %54, ptr noundef %55, i32 noundef %56, ptr noundef null)
  store i32 %57, ptr %9, align 4
  %58 = load ptr, ptr %13, align 8
  %59 = load i32, ptr @hf_kafka_token_id, align 4
  %60 = load ptr, ptr %6, align 8
  %61 = load ptr, ptr %7, align 8
  %62 = load i32, ptr %9, align 4
  %63 = load i16, ptr %10, align 2
  %64 = sext i16 %63 to i32
  %65 = icmp sge i32 %64, 2
  %66 = zext i1 %65 to i32
  %67 = call i32 @dissect_kafka_string(ptr noundef %58, i32 noundef %59, ptr noundef %60, ptr noundef %61, i32 noundef %62, i32 noundef %66, ptr noundef null, ptr noundef null)
  store i32 %67, ptr %9, align 4
  %68 = load ptr, ptr %13, align 8
  %69 = load i32, ptr @hf_kafka_token_hmac, align 4
  %70 = load ptr, ptr %6, align 8
  %71 = load ptr, ptr %7, align 8
  %72 = load i32, ptr %9, align 4
  %73 = load i16, ptr %10, align 2
  %74 = sext i16 %73 to i32
  %75 = icmp sge i32 %74, 2
  %76 = zext i1 %75 to i32
  %77 = call i32 @dissect_kafka_bytes(ptr noundef %68, i32 noundef %69, ptr noundef %70, ptr noundef %71, i32 noundef %72, i32 noundef %76, ptr noundef null, ptr noundef null)
  store i32 %77, ptr %9, align 4
  %78 = load ptr, ptr %13, align 8
  %79 = load ptr, ptr %6, align 8
  %80 = load i32, ptr %9, align 4
  %81 = load i32, ptr @ett_kafka_renewers, align 4
  %82 = call ptr @proto_tree_add_subtree(ptr noundef %78, ptr noundef %79, i32 noundef %80, i32 noundef -1, i32 noundef %81, ptr noundef %12, ptr noundef @.str.737)
  store ptr %82, ptr %14, align 8
  %83 = load ptr, ptr %14, align 8
  %84 = load ptr, ptr %6, align 8
  %85 = load ptr, ptr %7, align 8
  %86 = load i32, ptr %9, align 4
  %87 = load i16, ptr %10, align 2
  %88 = sext i16 %87 to i32
  %89 = icmp sge i32 %88, 2
  %90 = zext i1 %89 to i32
  %91 = load i16, ptr %10, align 2
  %92 = call i32 @dissect_kafka_array(ptr noundef %83, ptr noundef %84, ptr noundef %85, i32 noundef %86, i32 noundef %90, i16 noundef signext %91, ptr noundef @dissect_kafka_describe_delegation_token_response_renewer, ptr noundef null)
  store i32 %92, ptr %9, align 4
  %93 = load ptr, ptr %12, align 8
  %94 = load ptr, ptr %6, align 8
  %95 = load i32, ptr %9, align 4
  call void @proto_item_set_end(ptr noundef %93, ptr noundef %94, i32 noundef %95)
  %96 = load i16, ptr %10, align 2
  %97 = sext i16 %96 to i32
  %98 = icmp sge i32 %97, 2
  br i1 %98, label %99, label %105

99:                                               ; preds = %5
  %100 = load ptr, ptr %6, align 8
  %101 = load ptr, ptr %7, align 8
  %102 = load ptr, ptr %13, align 8
  %103 = load i32, ptr %9, align 4
  %104 = call i32 @dissect_kafka_tagged_fields(ptr noundef %100, ptr noundef %101, ptr noundef %102, i32 noundef %103, i16 noundef signext 0)
  store i32 %104, ptr %9, align 4
  br label %105

105:                                              ; preds = %99, %5
  %106 = load ptr, ptr %11, align 8
  %107 = load ptr, ptr %6, align 8
  %108 = load i32, ptr %9, align 4
  call void @proto_item_set_end(ptr noundef %106, ptr noundef %107, i32 noundef %108)
  %109 = load i32, ptr %9, align 4
  call void @llvm.lifetime.end.p0(i64 8, ptr %14) #12
  call void @llvm.lifetime.end.p0(i64 8, ptr %13) #12
  call void @llvm.lifetime.end.p0(i64 8, ptr %12) #12
  call void @llvm.lifetime.end.p0(i64 8, ptr %11) #12
  ret i32 %109
}