; Function Attrs: null_pointer_is_valid sspstrong uwtable
define internal noundef i32 @dissect_kafka_describe_delegation_token_response_token(ptr noundef %0, ptr noundef %1, ptr noundef %2, i32 noundef %3, i16 noundef signext %4) #0 {
  %6 = alloca ptr, align 8
  %7 = alloca ptr, align 8
  call void @llvm.lifetime.start.p0(i64 8, ptr nonnull %6) #9
  call void @llvm.lifetime.start.p0(i64 8, ptr nonnull %7) #9
  %8 = load i32, ptr @ett_kafka_token, align 4
  %9 = call ptr @proto_tree_add_subtree(ptr noundef %2, ptr noundef %0, i32 noundef %3, i32 noundef -1, i32 noundef %8, ptr noundef nonnull %6, ptr noundef nonnull @.str.779)
  %10 = load i32, ptr @hf_kafka_token_principal_type, align 4
  %11 = icmp sgt i16 %4, 1
  %12 = zext i1 %11 to i32
  %13 = call fastcc i32 @dissect_kafka_string(ptr noundef %9, i32 noundef %10, ptr noundef %0, ptr noundef %1, i32 noundef %3, i32 noundef %12, ptr noundef null, ptr noundef null)
  %14 = load i32, ptr @hf_kafka_token_principal_name, align 4
  %15 = call fastcc i32 @dissect_kafka_string(ptr noundef %9, i32 noundef %14, ptr noundef %0, ptr noundef %1, i32 noundef %13, i32 noundef %12, ptr noundef null, ptr noundef null)
  %16 = load i32, ptr @hf_kafka_token_issue_timestamp, align 4
  %17 = call ptr @proto_tree_add_item(ptr noundef %9, i32 noundef %16, ptr noundef %0, i32 noundef %15, i32 noundef 8, i32 noundef 20)
  %18 = add i32 %15, 8
  %19 = load i32, ptr @hf_kafka_token_expiry_timestamp, align 4
  %20 = call ptr @proto_tree_add_item(ptr noundef %9, i32 noundef %19, ptr noundef %0, i32 noundef %18, i32 noundef 8, i32 noundef 20)
  %21 = add i32 %15, 16
  %22 = load i32, ptr @hf_kafka_token_max_timestamp, align 4
  %23 = call ptr @proto_tree_add_item(ptr noundef %9, i32 noundef %22, ptr noundef %0, i32 noundef %21, i32 noundef 8, i32 noundef 20)
  %24 = add i32 %15, 24
  %25 = load i32, ptr @hf_kafka_token_id, align 4
  %26 = call fastcc i32 @dissect_kafka_string(ptr noundef %9, i32 noundef %25, ptr noundef %0, ptr noundef %1, i32 noundef %24, i32 noundef %12, ptr noundef null, ptr noundef null)
  %27 = load i32, ptr @hf_kafka_token_hmac, align 4
  %28 = call fastcc i32 @dissect_kafka_bytes(ptr noundef %9, i32 noundef %27, ptr noundef %0, ptr noundef %1, i32 noundef %26, i32 noundef %12)
  %29 = load i32, ptr @ett_kafka_renewers, align 4
  %30 = call ptr @proto_tree_add_subtree(ptr noundef %9, ptr noundef %0, i32 noundef %28, i32 noundef -1, i32 noundef %29, ptr noundef nonnull %7, ptr noundef nonnull @.str.737)
  %31 = call fastcc i32 @dissect_kafka_array(ptr noundef %30, ptr noundef %0, ptr noundef %1, i32 noundef %28, i32 noundef %12, i16 noundef signext %4, ptr noundef nonnull @dissect_kafka_describe_delegation_token_response_renewer, ptr noundef null)
  %32 = load ptr, ptr %7, align 8
  call void @proto_item_set_end(ptr noundef %32, ptr noundef %0, i32 noundef %31)
  br i1 %11, label %33, label %35

33:                                               ; preds = %5
  %34 = call fastcc i32 @dissect_kafka_tagged_fields(ptr noundef %0, ptr noundef %1, ptr noundef %9, i32 noundef %31)
  br label %35

35:                                               ; preds = %33, %5
  %.0 = phi i32 [ %34, %33 ], [ %31, %5 ]
  %36 = load ptr, ptr %6, align 8
  call void @proto_item_set_end(ptr noundef %36, ptr noundef %0, i32 noundef %.0)
  call void @llvm.lifetime.end.p0(i64 8, ptr nonnull %7) #9
  call void @llvm.lifetime.end.p0(i64 8, ptr nonnull %6) #9
  ret i32 %.0
}